target datalayout = "e-m:e-p270:32:32-p271:32:32-p272:64:64-i64:64-i128:128-f80:128-n8:16:32:64-S128"
target triple = "x86_64-pc-linux-gnu"

%struct.prte_oob_base_t = type { i32, i32, i32, i32, i32, %struct.pmix_list_t, i32, %struct.pmix_list_t, i32, i32, i8, ptr, ptr, ptr, ptr, i8, ptr, ptr, ptr, ptr, %struct.pmix_list_t, ptr, i32, %struct.pmix_list_t, %struct.pmix_thread_t, i8, %struct.timeval, [2 x i32], i32, i32, i32, i32, i32 }
%struct.pmix_list_t = type { %struct.pmix_object_t, %struct.pmix_list_item_t, i64 }
%struct.pmix_object_t = type { %union.pthread_mutex_t, ptr, i32, %struct.pmix_tma }
%union.pthread_mutex_t = type { %struct.__pthread_mutex_s }
%struct.__pthread_mutex_s = type { i32, i32, i32, i32, i32, i16, i16, %struct.__pthread_internal_list }
%struct.__pthread_internal_list = type { ptr, ptr }
%struct.pmix_tma = type { ptr, ptr, ptr, ptr, ptr, ptr, ptr, ptr }
%struct.pmix_list_item_t = type { %struct.pmix_object_t, ptr, ptr, i32 }
%struct.pmix_thread_t = type { %struct.pmix_object_t, ptr, ptr, i64 }
%struct.timeval = type { i64, i64 }
%struct.prte_process_info_t = type { %struct.pmix_proc, %struct.pmix_proc, ptr, %struct.pmix_proc, i32, i32, i32, ptr, ptr, i32, i8, ptr, i16, ptr, ptr, i8, ptr, i8 }
%struct.pmix_proc = type { [256 x i8], i32 }
%struct.pmix_output_desc_t = type { i8, i8, i32, i8, i32, ptr, ptr, i32, ptr, i32, i8, i8, i8, i8, ptr, i32, i32 }
%struct.event = type { %struct.event_callback, %union.anon.0, i32, ptr, %union.anon.2, i16, i16, %struct.timeval }
%struct.event_callback = type { %struct.anon, i16, i8, i8, %union.anon, ptr }
%struct.anon = type { ptr, ptr }
%union.anon = type { ptr }
%union.anon.0 = type { %struct.anon.1 }
%struct.anon.1 = type { ptr, ptr }
%union.anon.2 = type { %struct.anon.3 }
%struct.anon.3 = type { %struct.anon.4, %struct.timeval }
%struct.anon.4 = type { ptr, ptr }
%struct.prte_oob_tcp_peer_t = type { %struct.pmix_list_item_t, %struct.pmix_proc, ptr, i32, %struct.pmix_list_t, ptr, i32, i32, %struct.event, i8, %struct.event, i8, %struct.event, i8, %struct.pmix_list_t, ptr, ptr }

@prte_oob_base = external global %struct.prte_oob_base_t, align 8
@prte_process_info = external global %struct.prte_process_info_t, align 8
@pmix_output_info = external global [0 x %struct.pmix_output_desc_t], align 8
@.str.19 = private unnamed_addr constant [56 x i8] c"%s:tcp:complete_connect called for peer %s on socket %d\00", align 1
@.str.20 = private unnamed_addr constant [66 x i8] c"%s tcp_peer_complete_connect: getsockopt() to %s failed: %s (%d)\0A\00", align 1
@.str.21 = private unnamed_addr constant [38 x i8] c"%s:tcp:send:handler still in progress\00", align 1
@.str.22 = private unnamed_addr constant [60 x i8] c"%s-%s tcp_peer_complete_connect: connection failed: %s (%d)\00", align 1
@.str.23 = private unnamed_addr constant [65 x i8] c"%s-%s tcp_peer_complete_connect: connection failed with error %d\00", align 1
@.str.24 = private unnamed_addr constant [48 x i8] c"%s tcp_peer_complete_connect: sending ack to %s\00", align 1
@.str.25 = private unnamed_addr constant [69 x i8] c"%s tcp_peer_complete_connect: setting read event on connection to %s\00", align 1
@.str.26 = private unnamed_addr constant [63 x i8] c"%s tcp_peer_complete_connect: unable to send connect ack to %s\00", align 1

; Function Attrs: inlinehint nounwind uwtable
define internal void @pmix_atomic_wmb() #2 {
  fence release
  ret void
}

; Function Attrs: nounwind uwtable
define void @prte_oob_tcp_peer_complete_connect(ptr noundef %0) #0 {
  %2 = alloca ptr, align 8
  %3 = alloca i32, align 4
  %4 = alloca i32, align 4
  %5 = alloca i32, align 4
  store ptr %0, ptr %2, align 8, !tbaa !9
  call void @llvm.lifetime.start.p0(i64 4, ptr %3) #12
  store i32 0, ptr %3, align 4, !tbaa !3
  call void @llvm.lifetime.start.p0(i64 4, ptr %4) #12
  store i32 4, ptr %4, align 4, !tbaa !3
  %6 = load i32, ptr @prte_oob_base, align 8, !tbaa !64
  %7 = icmp sge i32 %6, 0
  br i1 %7, label %8, label %27

8:                                                ; preds = %1
  %9 = load i32, ptr @prte_oob_base, align 8, !tbaa !64
  %10 = icmp slt i32 %9, 64
  br i1 %10, label %11, label %27

11:                                               ; preds = %8
  %12 = load i32, ptr @prte_oob_base, align 8, !tbaa !64
  %13 = sext i32 %12 to i64
  %14 = getelementptr inbounds [0 x %struct.pmix_output_desc_t], ptr @pmix_output_info, i64 0, i64 %13
  %15 = getelementptr inbounds nuw %struct.pmix_output_desc_t, ptr %14, i32 0, i32 2
  %16 = load i32, ptr %15, align 4, !tbaa !34
  %17 = icmp sge i32 %16, 7
  br i1 %17, label %18, label %27

18:                                               ; preds = %11
  %19 = load i32, ptr @prte_oob_base, align 8, !tbaa !64
  %20 = call ptr @prte_util_print_name_args(ptr noundef @prte_process_info)
  %21 = load ptr, ptr %2, align 8, !tbaa !9
  %22 = getelementptr inbounds nuw %struct.prte_oob_tcp_peer_t, ptr %21, i32 0, i32 1
  %23 = call ptr @prte_util_print_name_args(ptr noundef %22)
  %24 = load ptr, ptr %2, align 8, !tbaa !9
  %25 = getelementptr inbounds nuw %struct.prte_oob_tcp_peer_t, ptr %24, i32 0, i32 3
  %26 = load i32, ptr %25, align 8, !tbaa !68
  call void (i32, ptr, ...) @pmix_output(i32 noundef %19, ptr noundef @.str.19, ptr noundef %20, ptr noundef %23, i32 noundef %26)
  br label %27

27:                                               ; preds = %18, %11, %8, %1
  %28 = load ptr, ptr %2, align 8, !tbaa !9
  %29 = getelementptr inbounds nuw %struct.prte_oob_tcp_peer_t, ptr %28, i32 0, i32 3
  %30 = load i32, ptr %29, align 8, !tbaa !68
  %31 = call i32 @getsockopt(i32 noundef %30, i32 noundef 1, i32 noundef 4, ptr noundef %3, ptr noundef %4) #12
  %32 = icmp slt i32 %31, 0
  br i1 %32, label %33, label %46

33:                                               ; preds = %27
  %34 = call ptr @prte_util_print_name_args(ptr noundef @prte_process_info)
  %35 = load ptr, ptr %2, align 8, !tbaa !9
  %36 = getelementptr inbounds nuw %struct.prte_oob_tcp_peer_t, ptr %35, i32 0, i32 1
  %37 = call ptr @prte_util_print_name_args(ptr noundef %36)
  %38 = call ptr @__errno_location() #13
  %39 = load i32, ptr %38, align 4, !tbaa !3
  %40 = call ptr @strerror(i32 noundef %39) #12
  %41 = call ptr @__errno_location() #13
  %42 = load i32, ptr %41, align 4, !tbaa !3
  call void (i32, ptr, ...) @pmix_output(i32 noundef 0, ptr noundef @.str.20, ptr noundef %34, ptr noundef %37, ptr noundef %40, i32 noundef %42)
  %43 = load ptr, ptr %2, align 8, !tbaa !9
  %44 = getelementptr inbounds nuw %struct.prte_oob_tcp_peer_t, ptr %43, i32 0, i32 6
  store i32 6, ptr %44, align 8, !tbaa !98
  %45 = load ptr, ptr %2, align 8, !tbaa !9
  call void @prte_oob_tcp_peer_close(ptr noundef %45)
  store i32 1, ptr %5, align 4
  br label %188

46:                                               ; preds = %27
  %47 = load i32, ptr %3, align 4, !tbaa !3
  %48 = icmp eq i32 %47, 115
  br i1 %48, label %49, label %66

49:                                               ; preds = %46
  %50 = load i32, ptr @prte_oob_base, align 8, !tbaa !64
  %51 = icmp sge i32 %50, 0
  br i1 %51, label %52, label %65

52:                                               ; preds = %49
  %53 = load i32, ptr @prte_oob_base, align 8, !tbaa !64
  %54 = icmp slt i32 %53, 64
  br i1 %54, label %55, label %65

55:                                               ; preds = %52
  %56 = load i32, ptr @prte_oob_base, align 8, !tbaa !64
  %57 = sext i32 %56 to i64
  %58 = getelementptr inbounds [0 x %struct.pmix_output_desc_t], ptr @pmix_output_info, i64 0, i64 %57
  %59 = getelementptr inbounds nuw %struct.pmix_output_desc_t, ptr %58, i32 0, i32 2
  %60 = load i32, ptr %59, align 4, !tbaa !34
  %61 = icmp sge i32 %60, 7
  br i1 %61, label %62, label %65

62:                                               ; preds = %55
  %63 = load i32, ptr @prte_oob_base, align 8, !tbaa !64
  %64 = call ptr @prte_util_print_name_args(ptr noundef @prte_process_info)
  call void (i32, ptr, ...) @pmix_output(i32 noundef %63, ptr noundef @.str.21, ptr noundef %64)
  br label %65

65:                                               ; preds = %62, %55, %52, %49
  store i32 1, ptr %5, align 4
  br label %188

66:                                               ; preds = %46
  %67 = load i32, ptr %3, align 4, !tbaa !3
  %68 = icmp eq i32 %67, 111
  br i1 %68, label %72, label %69

69:                                               ; preds = %66
  %70 = load i32, ptr %3, align 4, !tbaa !3
  %71 = icmp eq i32 %70, 110
  br i1 %71, label %72, label %96

72:                                               ; preds = %69, %66
  %73 = load i32, ptr @prte_oob_base, align 8, !tbaa !64
  %74 = icmp sge i32 %73, 0
  br i1 %74, label %75, label %94

75:                                               ; preds = %72
  %76 = load i32, ptr @prte_oob_base, align 8, !tbaa !64
  %77 = icmp slt i32 %76, 64
  br i1 %77, label %78, label %94

78:                                               ; preds = %75
  %79 = load i32, ptr @prte_oob_base, align 8, !tbaa !64
  %80 = sext i32 %79 to i64
  %81 = getelementptr inbounds [0 x %struct.pmix_output_desc_t], ptr @pmix_output_info, i64 0, i64 %80
  %82 = getelementptr inbounds nuw %struct.pmix_output_desc_t, ptr %81, i32 0, i32 2
  %83 = load i32, ptr %82, align 4, !tbaa !34
  %84 = icmp sge i32 %83, 7
  br i1 %84, label %85, label %94

85:                                               ; preds = %78
  %86 = load i32, ptr @prte_oob_base, align 8, !tbaa !64
  %87 = call ptr @prte_util_print_name_args(ptr noundef @prte_process_info)
  %88 = load ptr, ptr %2, align 8, !tbaa !9
  %89 = getelementptr inbounds nuw %struct.prte_oob_tcp_peer_t, ptr %88, i32 0, i32 1
  %90 = call ptr @prte_util_print_name_args(ptr noundef %89)
  %91 = load i32, ptr %3, align 4, !tbaa !3
  %92 = call ptr @strerror(i32 noundef %91) #12
  %93 = load i32, ptr %3, align 4, !tbaa !3
  call void (i32, ptr, ...) @pmix_output(i32 noundef %86, ptr noundef @.str.22, ptr noundef %87, ptr noundef %90, ptr noundef %92, i32 noundef %93)
  br label %94

94:                                               ; preds = %85, %78, %75, %72
  %95 = load ptr, ptr %2, align 8, !tbaa !9
  call void @prte_oob_tcp_peer_close(ptr noundef %95)
  store i32 1, ptr %5, align 4
  br label %188

96:                                               ; preds = %69
  %97 = load i32, ptr %3, align 4, !tbaa !3
  %98 = icmp ne i32 %97, 0
  br i1 %98, label %99, label %121

99:                                               ; preds = %96
  %100 = load i32, ptr @prte_oob_base, align 8, !tbaa !64
  %101 = icmp sge i32 %100, 0
  br i1 %101, label %102, label %119

102:                                              ; preds = %99
  %103 = load i32, ptr @prte_oob_base, align 8, !tbaa !64
  %104 = icmp slt i32 %103, 64
  br i1 %104, label %105, label %119

105:                                              ; preds = %102
  %106 = load i32, ptr @prte_oob_base, align 8, !tbaa !64
  %107 = sext i32 %106 to i64
  %108 = getelementptr inbounds [0 x %struct.pmix_output_desc_t], ptr @pmix_output_info, i64 0, i64 %107
  %109 = getelementptr inbounds nuw %struct.pmix_output_desc_t, ptr %108, i32 0, i32 2
  %110 = load i32, ptr %109, align 4, !tbaa !34
  %111 = icmp sge i32 %110, 7
  br i1 %111, label %112, label %119

112:                                              ; preds = %105
  %113 = load i32, ptr @prte_oob_base, align 8, !tbaa !64
  %114 = call ptr @prte_util_print_name_args(ptr noundef @prte_process_info)
  %115 = load ptr, ptr %2, align 8, !tbaa !9
  %116 = getelementptr inbounds nuw %struct.prte_oob_tcp_peer_t, ptr %115, i32 0, i32 1
  %117 = call ptr @prte_util_print_name_args(ptr noundef %116)
  %118 = load i32, ptr %3, align 4, !tbaa !3
  call void (i32, ptr, ...) @pmix_output(i32 noundef %113, ptr noundef @.str.23, ptr noundef %114, ptr noundef %117, i32 noundef %118)
  br label %119

119:                                              ; preds = %112, %105, %102, %99
  %120 = load ptr, ptr %2, align 8, !tbaa !9
  call void @prte_oob_tcp_peer_close(ptr noundef %120)
  store i32 1, ptr %5, align 4
  br label %188

121:                                              ; preds = %96
  br label %122

122:                                              ; preds = %121
  br label %123

123:                                              ; preds = %122
  %124 = load i32, ptr @prte_oob_base, align 8, !tbaa !64
  %125 = icmp sge i32 %124, 0
  br i1 %125, label %126, label %142

126:                                              ; preds = %123
  %127 = load i32, ptr @prte_oob_base, align 8, !tbaa !64
  %128 = icmp slt i32 %127, 64
  br i1 %128, label %129, label %142

129:                                              ; preds = %126
  %130 = load i32, ptr @prte_oob_base, align 8, !tbaa !64
  %131 = sext i32 %130 to i64
  %132 = getelementptr inbounds [0 x %struct.pmix_output_desc_t], ptr @pmix_output_info, i64 0, i64 %131
  %133 = getelementptr inbounds nuw %struct.pmix_output_desc_t, ptr %132, i32 0, i32 2
  %134 = load i32, ptr %133, align 4, !tbaa !34
  %135 = icmp sge i32 %134, 7
  br i1 %135, label %136, label %142

136:                                              ; preds = %129
  %137 = load i32, ptr @prte_oob_base, align 8, !tbaa !64
  %138 = call ptr @prte_util_print_name_args(ptr noundef @prte_process_info)
  %139 = load ptr, ptr %2, align 8, !tbaa !9
  %140 = getelementptr inbounds nuw %struct.prte_oob_tcp_peer_t, ptr %139, i32 0, i32 1
  %141 = call ptr @prte_util_print_name_args(ptr noundef %140)
  call void (i32, ptr, ...) @pmix_output(i32 noundef %137, ptr noundef @.str.24, ptr noundef %138, ptr noundef %141)
  br label %142

142:                                              ; preds = %136, %129, %126, %123
  %143 = load ptr, ptr %2, align 8, !tbaa !9
  %144 = call i32 @tcp_peer_send_connect_ack(ptr noundef %143)
  %145 = icmp eq i32 %144, 0
  br i1 %145, label %146, label %179

146:                                              ; preds = %142
  %147 = load ptr, ptr %2, align 8, !tbaa !9
  %148 = getelementptr inbounds nuw %struct.prte_oob_tcp_peer_t, ptr %147, i32 0, i32 6
  store i32 4, ptr %148, align 8, !tbaa !98
  %149 = load i32, ptr @prte_oob_base, align 8, !tbaa !64
  %150 = icmp sge i32 %149, 0
  br i1 %150, label %151, label %167

151:                                              ; preds = %146
  %152 = load i32, ptr @prte_oob_base, align 8, !tbaa !64
  %153 = icmp slt i32 %152, 64
  br i1 %153, label %154, label %167

154:                                              ; preds = %151
  %155 = load i32, ptr @prte_oob_base, align 8, !tbaa !64
  %156 = sext i32 %155 to i64
  %157 = getelementptr inbounds [0 x %struct.pmix_output_desc_t], ptr @pmix_output_info, i64 0, i64 %156
  %158 = getelementptr inbounds nuw %struct.pmix_output_desc_t, ptr %157, i32 0, i32 2
  %159 = load i32, ptr %158, align 4, !tbaa !34
  %160 = icmp sge i32 %159, 7
  br i1 %160, label %161, label %167

161:                                              ; preds = %154
  %162 = load i32, ptr @prte_oob_base, align 8, !tbaa !64
  %163 = call ptr @prte_util_print_name_args(ptr noundef @prte_process_info)
  %164 = load ptr, ptr %2, align 8, !tbaa !9
  %165 = getelementptr inbounds nuw %struct.prte_oob_tcp_peer_t, ptr %164, i32 0, i32 1
  %166 = call ptr @prte_util_print_name_args(ptr noundef %165)
  call void (i32, ptr, ...) @pmix_output(i32 noundef %162, ptr noundef @.str.25, ptr noundef %163, ptr noundef %166)
  br label %167

167:                                              ; preds = %161, %154, %151, %146
  %168 = load ptr, ptr %2, align 8, !tbaa !9
  %169 = getelementptr inbounds nuw %struct.prte_oob_tcp_peer_t, ptr %168, i32 0, i32 11
  %170 = load i8, ptr %169, align 8, !tbaa !104, !range !69, !noundef !70
  %171 = trunc i8 %170 to i1
  br i1 %171, label %178, label %172

172:                                              ; preds = %167
  %173 = load ptr, ptr %2, align 8, !tbaa !9
  %174 = getelementptr inbounds nuw %struct.prte_oob_tcp_peer_t, ptr %173, i32 0, i32 11
  store i8 1, ptr %174, align 8, !tbaa !104
  call void @pmix_atomic_wmb()
  %175 = load ptr, ptr %2, align 8, !tbaa !9
  %176 = getelementptr inbounds nuw %struct.prte_oob_tcp_peer_t, ptr %175, i32 0, i32 10
  %177 = call i32 @event_add(ptr noundef %176, ptr noundef null)
  br label %178

178:                                              ; preds = %172, %167
  br label %187

179:                                              ; preds = %142
  %180 = call ptr @prte_util_print_name_args(ptr noundef @prte_process_info)
  %181 = load ptr, ptr %2, align 8, !tbaa !9
  %182 = getelementptr inbounds nuw %struct.prte_oob_tcp_peer_t, ptr %181, i32 0, i32 1
  %183 = call ptr @prte_util_print_name_args(ptr noundef %182)
  call void (i32, ptr, ...) @pmix_output(i32 noundef 0, ptr noundef @.str.26, ptr noundef %180, ptr noundef %183)
  %184 = load ptr, ptr %2, align 8, !tbaa !9
  %185 = getelementptr inbounds nuw %struct.prte_oob_tcp_peer_t, ptr %184, i32 0, i32 6
  store i32 6, ptr %185, align 8, !tbaa !98
  %186 = load ptr, ptr %2, align 8, !tbaa !9
  call void @prte_oob_tcp_peer_close(ptr noundef %186)
  br label %187

187:                                              ; preds = %179, %178
  store i32 0, ptr %5, align 4
  br label %188

188:                                              ; preds = %187, %119, %94, %65, %33
  call void @llvm.lifetime.end.p0(i64 4, ptr %4) #12
  call void @llvm.lifetime.end.p0(i64 4, ptr %3) #12
  %189 = load i32, ptr %5, align 4
  switch i32 %189, label %191 [
    i32 0, label %190
    i32 1, label %190
  ]

190:                                              ; preds = %188, %188
  ret void

191:                                              ; preds = %188
  unreachable
}