; Function Attrs: nounwind uwtable
define void @prte_oob_tcp_peer_complete_connect(ptr noundef %0) local_unnamed_addr #0 {
  %2 = alloca i32, align 4
  %3 = alloca i32, align 4
  call void @llvm.lifetime.start.p0(i64 4, ptr nonnull %2) #15
  store i32 0, ptr %2, align 4, !tbaa !12
  call void @llvm.lifetime.start.p0(i64 4, ptr nonnull %3) #15
  store i32 4, ptr %3, align 4, !tbaa !12
  %4 = load i32, ptr @prte_oob_base, align 8, !tbaa !60
  %or.cond = icmp ult i32 %4, 64
  br i1 %or.cond, label %5, label %16

5:                                                ; preds = %1
  %6 = zext nneg i32 %4 to i64
  %7 = getelementptr inbounds nuw [0 x %struct.pmix_output_desc_t], ptr @pmix_output_info, i64 0, i64 %6, i32 2
  %8 = load i32, ptr %7, align 4, !tbaa !32
  %9 = icmp sgt i32 %8, 6
  br i1 %9, label %10, label %16

10:                                               ; preds = %5
  %11 = tail call ptr @prte_util_print_name_args(ptr noundef nonnull @prte_process_info) #15
  %12 = getelementptr inbounds nuw i8, ptr %0, i64 144
  %13 = tail call ptr @prte_util_print_name_args(ptr noundef nonnull %12) #15
  %14 = getelementptr inbounds nuw i8, ptr %0, i64 416
  %15 = load i32, ptr %14, align 8, !tbaa !64
  tail call void (i32, ptr, ...) @pmix_output(i32 noundef %4, ptr noundef nonnull @.str.19, ptr noundef %11, ptr noundef %13, i32 noundef %15) #15
  br label %16

16:                                               ; preds = %10, %5, %1
  %17 = getelementptr inbounds nuw i8, ptr %0, i64 416
  %18 = load i32, ptr %17, align 8, !tbaa !64
  %19 = call i32 @getsockopt(i32 noundef %18, i32 noundef 1, i32 noundef 4, ptr noundef nonnull %2, ptr noundef nonnull %3) #15
  %20 = icmp slt i32 %19, 0
  br i1 %20, label %21, label %30

21:                                               ; preds = %16
  %22 = call ptr @prte_util_print_name_args(ptr noundef nonnull @prte_process_info) #15
  %23 = getelementptr inbounds nuw i8, ptr %0, i64 144
  %24 = call ptr @prte_util_print_name_args(ptr noundef nonnull %23) #15
  %25 = tail call ptr @__errno_location() #16
  %26 = load i32, ptr %25, align 4, !tbaa !12
  %27 = call ptr @strerror(i32 noundef %26) #15
  %28 = load i32, ptr %25, align 4, !tbaa !12
  call void (i32, ptr, ...) @pmix_output(i32 noundef 0, ptr noundef nonnull @.str.20, ptr noundef %22, ptr noundef %24, ptr noundef %27, i32 noundef %28) #15
  %29 = getelementptr inbounds nuw i8, ptr %0, i64 704
  store i32 6, ptr %29, align 8, !tbaa !95
  call void @prte_oob_tcp_peer_close(ptr noundef nonnull %0)
  br label %110

30:                                               ; preds = %16
  %31 = load i32, ptr %2, align 4, !tbaa !12
  %32 = icmp eq i32 %31, 115
  br i1 %32, label %33, label %42

33:                                               ; preds = %30
  %34 = load i32, ptr @prte_oob_base, align 8, !tbaa !60
  %or.cond3 = icmp ult i32 %34, 64
  br i1 %or.cond3, label %35, label %110

35:                                               ; preds = %33
  %36 = zext nneg i32 %34 to i64
  %37 = getelementptr inbounds nuw [0 x %struct.pmix_output_desc_t], ptr @pmix_output_info, i64 0, i64 %36, i32 2
  %38 = load i32, ptr %37, align 4, !tbaa !32
  %39 = icmp sgt i32 %38, 6
  br i1 %39, label %40, label %110

40:                                               ; preds = %35
  %41 = call ptr @prte_util_print_name_args(ptr noundef nonnull @prte_process_info) #15
  call void (i32, ptr, ...) @pmix_output(i32 noundef %34, ptr noundef nonnull @.str.21, ptr noundef %41) #15
  br label %110

42:                                               ; preds = %30
  %43 = and i32 %31, -2
  %or.cond5 = icmp eq i32 %43, 110
  br i1 %or.cond5, label %44, label %59

44:                                               ; preds = %42
  %45 = load i32, ptr @prte_oob_base, align 8, !tbaa !60
  %or.cond7 = icmp ult i32 %45, 64
  br i1 %or.cond7, label %46, label %58

46:                                               ; preds = %44
  %47 = zext nneg i32 %45 to i64
  %48 = getelementptr inbounds nuw [0 x %struct.pmix_output_desc_t], ptr @pmix_output_info, i64 0, i64 %47, i32 2
  %49 = load i32, ptr %48, align 4, !tbaa !32
  %50 = icmp sgt i32 %49, 6
  br i1 %50, label %51, label %58

51:                                               ; preds = %46
  %52 = call ptr @prte_util_print_name_args(ptr noundef nonnull @prte_process_info) #15
  %53 = getelementptr inbounds nuw i8, ptr %0, i64 144
  %54 = call ptr @prte_util_print_name_args(ptr noundef nonnull %53) #15
  %55 = load i32, ptr %2, align 4, !tbaa !12
  %56 = call ptr @strerror(i32 noundef %55) #15
  %57 = load i32, ptr %2, align 4, !tbaa !12
  call void (i32, ptr, ...) @pmix_output(i32 noundef %45, ptr noundef nonnull @.str.22, ptr noundef %52, ptr noundef %54, ptr noundef %56, i32 noundef %57) #15
  br label %58

58:                                               ; preds = %51, %46, %44
  call void @prte_oob_tcp_peer_close(ptr noundef nonnull %0)
  br label %110

59:                                               ; preds = %42
  %.not = icmp eq i32 %31, 0
  %60 = load i32, ptr @prte_oob_base, align 8, !tbaa !60
  %or.cond11 = icmp ult i32 %60, 64
  br i1 %.not, label %73, label %61

61:                                               ; preds = %59
  br i1 %or.cond11, label %62, label %72

62:                                               ; preds = %61
  %63 = zext nneg i32 %60 to i64
  %64 = getelementptr inbounds nuw [0 x %struct.pmix_output_desc_t], ptr @pmix_output_info, i64 0, i64 %63, i32 2
  %65 = load i32, ptr %64, align 4, !tbaa !32
  %66 = icmp sgt i32 %65, 6
  br i1 %66, label %67, label %72

67:                                               ; preds = %62
  %68 = call ptr @prte_util_print_name_args(ptr noundef nonnull @prte_process_info) #15
  %69 = getelementptr inbounds nuw i8, ptr %0, i64 144
  %70 = call ptr @prte_util_print_name_args(ptr noundef nonnull %69) #15
  %71 = load i32, ptr %2, align 4, !tbaa !12
  call void (i32, ptr, ...) @pmix_output(i32 noundef %60, ptr noundef nonnull @.str.23, ptr noundef %68, ptr noundef %70, i32 noundef %71) #15
  br label %72

72:                                               ; preds = %67, %62, %61
  call void @prte_oob_tcp_peer_close(ptr noundef nonnull %0)
  br label %110

73:                                               ; preds = %59
  br i1 %or.cond11, label %74, label %83

74:                                               ; preds = %73
  %75 = zext nneg i32 %60 to i64
  %76 = getelementptr inbounds nuw [0 x %struct.pmix_output_desc_t], ptr @pmix_output_info, i64 0, i64 %75, i32 2
  %77 = load i32, ptr %76, align 4, !tbaa !32
  %78 = icmp sgt i32 %77, 6
  br i1 %78, label %79, label %83

79:                                               ; preds = %74
  %80 = call ptr @prte_util_print_name_args(ptr noundef nonnull @prte_process_info) #15
  %81 = getelementptr inbounds nuw i8, ptr %0, i64 144
  %82 = call ptr @prte_util_print_name_args(ptr noundef nonnull %81) #15
  call void (i32, ptr, ...) @pmix_output(i32 noundef %60, ptr noundef nonnull @.str.24, ptr noundef %80, ptr noundef %82) #15
  br label %83

83:                                               ; preds = %79, %74, %73
  %84 = call fastcc i32 @tcp_peer_send_connect_ack(ptr noundef nonnull %0)
  %85 = icmp eq i32 %84, 0
  br i1 %85, label %86, label %105

86:                                               ; preds = %83
  %87 = getelementptr inbounds nuw i8, ptr %0, i64 704
  store i32 4, ptr %87, align 8, !tbaa !95
  %88 = load i32, ptr @prte_oob_base, align 8, !tbaa !60
  %or.cond13 = icmp ult i32 %88, 64
  br i1 %or.cond13, label %89, label %98

89:                                               ; preds = %86
  %90 = zext nneg i32 %88 to i64
  %91 = getelementptr inbounds nuw [0 x %struct.pmix_output_desc_t], ptr @pmix_output_info, i64 0, i64 %90, i32 2
  %92 = load i32, ptr %91, align 4, !tbaa !32
  %93 = icmp sgt i32 %92, 6
  br i1 %93, label %94, label %98

94:                                               ; preds = %89
  %95 = call ptr @prte_util_print_name_args(ptr noundef nonnull @prte_process_info) #15
  %96 = getelementptr inbounds nuw i8, ptr %0, i64 144
  %97 = call ptr @prte_util_print_name_args(ptr noundef nonnull %96) #15
  call void (i32, ptr, ...) @pmix_output(i32 noundef %88, ptr noundef nonnull @.str.25, ptr noundef %95, ptr noundef %97) #15
  br label %98

98:                                               ; preds = %94, %89, %86
  %99 = getelementptr inbounds nuw i8, ptr %0, i64 976
  %100 = load i8, ptr %99, align 8, !tbaa !84, !range !85, !noundef !86
  %101 = trunc nuw i8 %100 to i1
  br i1 %101, label %110, label %102

102:                                              ; preds = %98
  store i8 1, ptr %99, align 8, !tbaa !84
  fence release
  %103 = getelementptr inbounds nuw i8, ptr %0, i64 848
  %104 = call i32 @event_add(ptr noundef nonnull %103, ptr noundef null) #15
  br label %110

105:                                              ; preds = %83
  %106 = call ptr @prte_util_print_name_args(ptr noundef nonnull @prte_process_info) #15
  %107 = getelementptr inbounds nuw i8, ptr %0, i64 144
  %108 = call ptr @prte_util_print_name_args(ptr noundef nonnull %107) #15
  call void (i32, ptr, ...) @pmix_output(i32 noundef 0, ptr noundef nonnull @.str.26, ptr noundef %106, ptr noundef %108) #15
  %109 = getelementptr inbounds nuw i8, ptr %0, i64 704
  store i32 6, ptr %109, align 8, !tbaa !95
  call void @prte_oob_tcp_peer_close(ptr noundef nonnull %0)
  br label %110

110:                                              ; preds = %105, %102, %98, %33, %35, %40, %72, %58, %21
  call void @llvm.lifetime.end.p0(i64 4, ptr nonnull %3) #15
  call void @llvm.lifetime.end.p0(i64 4, ptr nonnull %2) #15
  ret void
}